target datalayout = "e-m:e-p270:32:32-p271:32:32-p272:64:64-i64:64-i128:128-f80:128-n8:16:32:64-S128"
target triple = "x86_64-pc-linux-gnu"

%"class.google::protobuf::internal::ExtensionSet" = type { ptr, i16, i16, %"union.google::protobuf::internal::ExtensionSet::AllocatedData" }
%"union.google::protobuf::internal::ExtensionSet::AllocatedData" = type { ptr }
%"struct.std::_Rb_tree_iterator" = type { ptr }
%"class.std::map" = type { %"class.std::_Rb_tree" }
%"class.std::_Rb_tree" = type { %"struct.std::_Rb_tree<int, std::pair<const int, google::protobuf::internal::ExtensionSet::Extension>, std::_Select1st<std::pair<const int, google::protobuf::internal::ExtensionSet::Extension>>, std::less<int>>::_Rb_tree_impl" }
%"struct.std::_Rb_tree<int, std::pair<const int, google::protobuf::internal::ExtensionSet::Extension>, std::_Select1st<std::pair<const int, google::protobuf::internal::ExtensionSet::Extension>>, std::less<int>>::_Rb_tree_impl" = type { [8 x i8], %"struct.std::_Rb_tree_header" }
%"struct.std::_Rb_tree_header" = type { %"struct.std::_Rb_tree_node_base", i64 }
%"struct.std::_Rb_tree_node_base" = type { i32, ptr, ptr, ptr }
%"struct.google::protobuf::internal::ExtensionSet::Extension" = type { %union.anon.4, i8, i8, i8, i8, i32, ptr }
%union.anon.4 = type { i64 }
%"struct.google::protobuf::internal::ExtensionSet::KeyValue" = type { i32, %"struct.google::protobuf::internal::ExtensionSet::Extension" }
%class.anon.13 = type { i8 }

; Function Attrs: mustprogress nounwind uwtable
define linkonce_odr hidden void @_ZNSt17_Rb_tree_iteratorISt4pairIKiN6google8protobuf8internal12ExtensionSet9ExtensionEEEC2EPSt18_Rb_tree_node_base(ptr noundef nonnull align 8 dereferenceable(8) %0, ptr noundef %1) unnamed_addr #4 comdat align 2 {
  %3 = alloca ptr, align 8
  %4 = alloca ptr, align 8
  store ptr %0, ptr %3, align 8, !tbaa !396
  store ptr %1, ptr %4, align 8, !tbaa !359
  %5 = load ptr, ptr %3, align 8
  %6 = getelementptr inbounds nuw %"struct.std::_Rb_tree_iterator", ptr %5, i32 0, i32 0
  %7 = load ptr, ptr %4, align 8, !tbaa !359
  store ptr %7, ptr %6, align 8, !tbaa !398
  ret void
}

; Function Attrs: inlinehint mustprogress uwtable
define internal void @"_ZZN6google8protobuf8internal12ExtensionSet5ClearEvENK3$_0clEiRNS2_9ExtensionE"(ptr noundef nonnull align 1 dereferenceable(1) %0, i32 noundef %1, ptr noundef nonnull align 8 dereferenceable(24) %2) #13 align 2 {
  %4 = alloca ptr, align 8
  %5 = alloca i32, align 4
  %6 = alloca ptr, align 8
  store ptr %0, ptr %4, align 8, !tbaa !39
  store i32 %1, ptr %5, align 4, !tbaa !10
  store ptr %2, ptr %6, align 8, !tbaa !59
  %7 = load ptr, ptr %6, align 8, !tbaa !59
  call void @_ZN6google8protobuf8internal12ExtensionSet9Extension5ClearEv(ptr noundef nonnull align 8 dereferenceable(24) %7)
  ret void
}

; Function Attrs: mustprogress nounwind uwtable
define linkonce_odr hidden ptr @_ZNSt8_Rb_treeIiSt4pairIKiN6google8protobuf8internal12ExtensionSet9ExtensionEESt10_Select1stIS7_ESt4lessIiESaIS7_EE3endEv(ptr noundef nonnull align 8 dereferenceable(48) %0) #4 comdat align 2 {
  %2 = alloca %"struct.std::_Rb_tree_iterator", align 8
  %3 = alloca ptr, align 8
  store ptr %0, ptr %3, align 8, !tbaa !631
  %4 = load ptr, ptr %3, align 8
  %5 = getelementptr inbounds nuw %"class.std::_Rb_tree", ptr %4, i32 0, i32 0
  %6 = getelementptr inbounds i8, ptr %5, i64 8
  %7 = getelementptr inbounds nuw %"struct.std::_Rb_tree_header", ptr %6, i32 0, i32 0
  call void @_ZNSt17_Rb_tree_iteratorISt4pairIKiN6google8protobuf8internal12ExtensionSet9ExtensionEEEC2EPSt18_Rb_tree_node_base(ptr noundef nonnull align 8 dereferenceable(8) %2, ptr noundef %7) #3
  %8 = getelementptr inbounds nuw %"struct.std::_Rb_tree_iterator", ptr %2, i32 0, i32 0
  %9 = load ptr, ptr %8, align 8
  ret ptr %9
}

; Function Attrs: mustprogress nounwind uwtable
define linkonce_odr hidden ptr @_ZNSt8_Rb_treeIiSt4pairIKiN6google8protobuf8internal12ExtensionSet9ExtensionEESt10_Select1stIS7_ESt4lessIiESaIS7_EE5beginEv(ptr noundef nonnull align 8 dereferenceable(48) %0) #4 comdat align 2 {
  %2 = alloca %"struct.std::_Rb_tree_iterator", align 8
  %3 = alloca ptr, align 8
  store ptr %0, ptr %3, align 8, !tbaa !631
  %4 = load ptr, ptr %3, align 8
  %5 = getelementptr inbounds nuw %"class.std::_Rb_tree", ptr %4, i32 0, i32 0
  %6 = getelementptr inbounds i8, ptr %5, i64 8
  %7 = getelementptr inbounds nuw %"struct.std::_Rb_tree_header", ptr %6, i32 0, i32 0
  %8 = getelementptr inbounds nuw %"struct.std::_Rb_tree_node_base", ptr %7, i32 0, i32 2
  %9 = load ptr, ptr %8, align 8, !tbaa !731
  call void @_ZNSt17_Rb_tree_iteratorISt4pairIKiN6google8protobuf8internal12ExtensionSet9ExtensionEEEC2EPSt18_Rb_tree_node_base(ptr noundef nonnull align 8 dereferenceable(8) %2, ptr noundef %9) #3
  %10 = getelementptr inbounds nuw %"struct.std::_Rb_tree_iterator", ptr %2, i32 0, i32 0
  %11 = load ptr, ptr %10, align 8
  ret ptr %11
}

; Function Attrs: mustprogress uwtable
define internal void @"_ZN6google8protobuf8internal12ExtensionSet7ForEachIPNS2_8KeyValueEZNS2_5ClearEvE3$_0EET0_T_S8_S7_"(ptr noundef %0, ptr noundef %1) #6 align 2 {
  %3 = alloca %class.anon.13, align 1
  %4 = alloca ptr, align 8
  %5 = alloca ptr, align 8
  %6 = alloca ptr, align 8
  store ptr %0, ptr %4, align 8, !tbaa !56
  store ptr %1, ptr %5, align 8, !tbaa !56
  call void @llvm.lifetime.start.p0(i64 8, ptr %6) #3
  %7 = load ptr, ptr %4, align 8, !tbaa !56
  store ptr %7, ptr %6, align 8, !tbaa !56
  br label %8

8:                                                ; preds = %19, %2
  %9 = load ptr, ptr %6, align 8, !tbaa !56
  %10 = load ptr, ptr %5, align 8, !tbaa !56
  %11 = icmp ne ptr %9, %10
  br i1 %11, label %13, label %12

12:                                               ; preds = %8
  call void @llvm.lifetime.end.p0(i64 8, ptr %6) #3
  br label %22

13:                                               ; preds = %8
  %14 = load ptr, ptr %6, align 8, !tbaa !56
  %15 = getelementptr inbounds nuw %"struct.google::protobuf::internal::ExtensionSet::KeyValue", ptr %14, i32 0, i32 0
  %16 = load i32, ptr %15, align 8, !tbaa !65
  %17 = load ptr, ptr %6, align 8, !tbaa !56
  %18 = getelementptr inbounds nuw %"struct.google::protobuf::internal::ExtensionSet::KeyValue", ptr %17, i32 0, i32 1
  call void @"_ZZN6google8protobuf8internal12ExtensionSet5ClearEvENK3$_0clEiRNS2_9ExtensionE"(ptr noundef nonnull align 1 dereferenceable(1) %3, i32 noundef %16, ptr noundef nonnull align 8 dereferenceable(24) %18)
  br label %19

19:                                               ; preds = %13
  %20 = load ptr, ptr %6, align 8, !tbaa !56
  %21 = getelementptr inbounds nuw %"struct.google::protobuf::internal::ExtensionSet::KeyValue", ptr %20, i32 1
  store ptr %21, ptr %6, align 8, !tbaa !56
  br label %8, !llvm.loop !728

22:                                               ; preds = %12
  ret void
}

; Function Attrs: mustprogress nounwind uwtable
define linkonce_odr hidden noundef ptr @_ZN6google8protobuf8internal12ExtensionSet8flat_endEv(ptr noundef nonnull align 8 dereferenceable(24) %0) #4 comdat align 2 {
  %2 = alloca ptr, align 8
  store ptr %0, ptr %2, align 8, !tbaa !43
  %3 = load ptr, ptr %2, align 8
  %4 = getelementptr inbounds nuw %"class.google::protobuf::internal::ExtensionSet", ptr %3, i32 0, i32 3
  %5 = load ptr, ptr %4, align 8, !tbaa !20
  %6 = getelementptr inbounds nuw %"class.google::protobuf::internal::ExtensionSet", ptr %3, i32 0, i32 2
  %7 = load i16, ptr %6, align 2, !tbaa !51
  %8 = zext i16 %7 to i32
  %9 = sext i32 %8 to i64
  %10 = getelementptr inbounds %"struct.google::protobuf::internal::ExtensionSet::KeyValue", ptr %5, i64 %9
  ret ptr %10
}

; Function Attrs: mustprogress nounwind uwtable
define linkonce_odr hidden noundef ptr @_ZN6google8protobuf8internal12ExtensionSet10flat_beginEv(ptr noundef nonnull align 8 dereferenceable(24) %0) #4 comdat align 2 {
  %2 = alloca ptr, align 8
  store ptr %0, ptr %2, align 8, !tbaa !43
  %3 = load ptr, ptr %2, align 8
  %4 = getelementptr inbounds nuw %"class.google::protobuf::internal::ExtensionSet", ptr %3, i32 0, i32 3
  %5 = load ptr, ptr %4, align 8, !tbaa !20
  ret ptr %5
}

; Function Attrs: mustprogress nounwind uwtable
define linkonce_odr hidden ptr @_ZNSt3mapIiN6google8protobuf8internal12ExtensionSet9ExtensionESt4lessIiESaISt4pairIKiS4_EEE3endEv(ptr noundef nonnull align 8 dereferenceable(48) %0) #4 comdat align 2 {
  %2 = alloca %"struct.std::_Rb_tree_iterator", align 8
  %3 = alloca ptr, align 8
  store ptr %0, ptr %3, align 8, !tbaa !54
  %4 = load ptr, ptr %3, align 8
  %5 = getelementptr inbounds nuw %"class.std::map", ptr %4, i32 0, i32 0
  %6 = call ptr @_ZNSt8_Rb_treeIiSt4pairIKiN6google8protobuf8internal12ExtensionSet9ExtensionEESt10_Select1stIS7_ESt4lessIiESaIS7_EE3endEv(ptr noundef nonnull align 8 dereferenceable(48) %5) #3
  %7 = getelementptr inbounds nuw %"struct.std::_Rb_tree_iterator", ptr %2, i32 0, i32 0
  store ptr %6, ptr %7, align 8
  %8 = getelementptr inbounds nuw %"struct.std::_Rb_tree_iterator", ptr %2, i32 0, i32 0
  %9 = load ptr, ptr %8, align 8
  ret ptr %9
}

; Function Attrs: mustprogress nounwind uwtable
define linkonce_odr hidden ptr @_ZNSt3mapIiN6google8protobuf8internal12ExtensionSet9ExtensionESt4lessIiESaISt4pairIKiS4_EEE5beginEv(ptr noundef nonnull align 8 dereferenceable(48) %0) #4 comdat align 2 {
  %2 = alloca %"struct.std::_Rb_tree_iterator", align 8
  %3 = alloca ptr, align 8
  store ptr %0, ptr %3, align 8, !tbaa !54
  %4 = load ptr, ptr %3, align 8
  %5 = getelementptr inbounds nuw %"class.std::map", ptr %4, i32 0, i32 0
  %6 = call ptr @_ZNSt8_Rb_treeIiSt4pairIKiN6google8protobuf8internal12ExtensionSet9ExtensionEESt10_Select1stIS7_ESt4lessIiESaIS7_EE5beginEv(ptr noundef nonnull align 8 dereferenceable(48) %5) #3
  %7 = getelementptr inbounds nuw %"struct.std::_Rb_tree_iterator", ptr %2, i32 0, i32 0
  store ptr %6, ptr %7, align 8
  %8 = getelementptr inbounds nuw %"struct.std::_Rb_tree_iterator", ptr %2, i32 0, i32 0
  %9 = load ptr, ptr %8, align 8
  ret ptr %9
}

; Function Attrs: mustprogress nounwind uwtable
define linkonce_odr hidden noundef zeroext i1 @_ZNK6google8protobuf8internal12ExtensionSet8is_largeEv(ptr noundef nonnull align 8 dereferenceable(24) %0) #4 comdat align 2 {
  %2 = alloca ptr, align 8
  store ptr %0, ptr %2, align 8, !tbaa !43
  %3 = load ptr, ptr %2, align 8
  %4 = getelementptr inbounds nuw %"class.google::protobuf::internal::ExtensionSet", ptr %3, i32 0, i32 2
  %5 = load i16, ptr %4, align 2, !tbaa !51
  %6 = sext i16 %5 to i32
  %7 = icmp slt i32 %6, 0
  ret i1 %7
}

; Function Attrs: mustprogress uwtable
define internal void @"_ZN6google8protobuf8internal12ExtensionSet7ForEachIZNS2_5ClearEvE3$_0EET_S5_"(ptr noundef nonnull align 8 dereferenceable(24) %0) #6 align 2 {
  %2 = alloca ptr, align 8
  %3 = alloca %"struct.std::_Rb_tree_iterator", align 8
  %4 = alloca %"struct.std::_Rb_tree_iterator", align 8
  store ptr %0, ptr %2, align 8, !tbaa !43
  %5 = load ptr, ptr %2, align 8
  %6 = call noundef zeroext i1 @_ZNK6google8protobuf8internal12ExtensionSet8is_largeEv(ptr noundef nonnull align 8 dereferenceable(24) %5)
  %7 = zext i1 %6 to i64
  %8 = call i64 @llvm.expect.i64(i64 %7, i64 0)
  %9 = icmp ne i64 %8, 0
  br i1 %9, label %10, label %23

10:                                               ; preds = %1
  %11 = getelementptr inbounds nuw %"class.google::protobuf::internal::ExtensionSet", ptr %5, i32 0, i32 3
  %12 = load ptr, ptr %11, align 8, !tbaa !20
  %13 = call ptr @_ZNSt3mapIiN6google8protobuf8internal12ExtensionSet9ExtensionESt4lessIiESaISt4pairIKiS4_EEE5beginEv(ptr noundef nonnull align 8 dereferenceable(48) %12) #3
  %14 = getelementptr inbounds nuw %"struct.std::_Rb_tree_iterator", ptr %3, i32 0, i32 0
  store ptr %13, ptr %14, align 8
  %15 = getelementptr inbounds nuw %"class.google::protobuf::internal::ExtensionSet", ptr %5, i32 0, i32 3
  %16 = load ptr, ptr %15, align 8, !tbaa !20
  %17 = call ptr @_ZNSt3mapIiN6google8protobuf8internal12ExtensionSet9ExtensionESt4lessIiESaISt4pairIKiS4_EEE3endEv(ptr noundef nonnull align 8 dereferenceable(48) %16) #3
  %18 = getelementptr inbounds nuw %"struct.std::_Rb_tree_iterator", ptr %4, i32 0, i32 0
  store ptr %17, ptr %18, align 8
  %19 = getelementptr inbounds nuw %"struct.std::_Rb_tree_iterator", ptr %3, i32 0, i32 0
  %20 = load ptr, ptr %19, align 8
  %21 = getelementptr inbounds nuw %"struct.std::_Rb_tree_iterator", ptr %4, i32 0, i32 0
  %22 = load ptr, ptr %21, align 8
  call void @"_ZN6google8protobuf8internal12ExtensionSet7ForEachISt17_Rb_tree_iteratorISt4pairIKiNS2_9ExtensionEEEZNS2_5ClearEvE3$_0EET0_T_SC_SB_"(ptr %20, ptr %22)
  br label %26

23:                                               ; preds = %1
  %24 = call noundef ptr @_ZN6google8protobuf8internal12ExtensionSet10flat_beginEv(ptr noundef nonnull align 8 dereferenceable(24) %5)
  %25 = call noundef ptr @_ZN6google8protobuf8internal12ExtensionSet8flat_endEv(ptr noundef nonnull align 8 dereferenceable(24) %5)
  call void @"_ZN6google8protobuf8internal12ExtensionSet7ForEachIPNS2_8KeyValueEZNS2_5ClearEvE3$_0EET0_T_S8_S7_"(ptr noundef %24, ptr noundef %25)
  br label %26

26:                                               ; preds = %23, %10
  ret void
}

; Function Attrs: mustprogress uwtable
define hidden void @_ZN6google8protobuf8internal12ExtensionSet5ClearEv(ptr noundef nonnull align 8 dereferenceable(24) %0) #6 align 2 {
  %2 = alloca ptr, align 8
  store ptr %0, ptr %2, align 8, !tbaa !43
  %3 = load ptr, ptr %2, align 8
  call void @"_ZN6google8protobuf8internal12ExtensionSet7ForEachIZNS2_5ClearEvE3$_0EET_S5_"(ptr noundef nonnull align 8 dereferenceable(24) %3)
  ret void
}