; Function Attrs: mustprogress uwtable
define hidden void @_ZN6google8protobuf8internal12ExtensionSet5ClearEv(ptr noundef nonnull readonly align 8 captures(none) dereferenceable(24) %0) local_unnamed_addr #8 align 2 {
  %2 = getelementptr inbounds nuw i8, ptr %0, i64 10
  %.val = load i16, ptr %2, align 2, !tbaa !66
  %3 = getelementptr inbounds nuw i8, ptr %0, i64 16
  %.val1 = load ptr, ptr %3, align 8
  %4 = icmp slt i16 %.val, 0
  br i1 %4, label %5, label %9, !prof !50

5:                                                ; preds = %1
  %6 = getelementptr inbounds nuw i8, ptr %.val1, i64 24
  %7 = load ptr, ptr %6, align 8, !tbaa !67
  %8 = getelementptr inbounds nuw i8, ptr %.val1, i64 8
  tail call fastcc void @"_ZN6google8protobuf8internal12ExtensionSet7ForEachISt17_Rb_tree_iteratorISt4pairIKiNS2_9ExtensionEEEZNS2_5ClearEvE3$_0EET0_T_SC_SB_"(ptr %7, ptr nonnull %8)
  br label %"_ZN6google8protobuf8internal12ExtensionSet7ForEachIZNS2_5ClearEvE3$_0EET_S5_.exit"

9:                                                ; preds = %1
  %10 = zext nneg i16 %.val to i64
  %11 = getelementptr inbounds nuw %"struct.google::protobuf::internal::ExtensionSet::KeyValue", ptr %.val1, i64 %10
  %.not6.i.i = icmp eq i16 %.val, 0
  br i1 %.not6.i.i, label %"_ZN6google8protobuf8internal12ExtensionSet7ForEachIZNS2_5ClearEvE3$_0EET_S5_.exit", label %.lr.ph.i.i

.lr.ph.i.i:                                       ; preds = %9, %.lr.ph.i.i
  %.07.i.i = phi ptr [ %13, %.lr.ph.i.i ], [ %.val1, %9 ]
  %12 = getelementptr inbounds nuw i8, ptr %.07.i.i, i64 8
  tail call void @_ZN6google8protobuf8internal12ExtensionSet9Extension5ClearEv(ptr noundef nonnull align 8 dereferenceable(24) %12)
  %13 = getelementptr inbounds nuw i8, ptr %.07.i.i, i64 32
  %.not.i.i = icmp eq ptr %13, %11
  br i1 %.not.i.i, label %"_ZN6google8protobuf8internal12ExtensionSet7ForEachIZNS2_5ClearEvE3$_0EET_S5_.exit", label %.lr.ph.i.i, !llvm.loop !144

"_ZN6google8protobuf8internal12ExtensionSet7ForEachIZNS2_5ClearEvE3$_0EET_S5_.exit": ; preds = %.lr.ph.i.i, %5, %9
  ret void
}